(lp1
ccopy_reg
_reconstructor
p2
(c__main__
Project
p3
c__builtin__
object
p4
NtRp5
(dp6
S'tickets'
p7
(lp8
g2
(c__main__
Ticket
p9
g4
NtRp10
(dp11
S'priority'
p12
S'high'
p13
sS'description'
p14
S'implement it, fix the delete button, make sure it deletes'
p15
sS'title'
p16
S'implement edit button'
p17
sbasg16
S'cashflow'
p18
sbag2
(g3
g4
NtRp19
(dp20
g7
(lp21
sg16
S'budget'
p22
sba.